target datalayout = "e-m:e-p270:32:32-p271:32:32-p272:64:64-i64:64-i128:128-f80:128-n8:16:32:64-S128"
target triple = "x86_64-pc-linux-gnu"

%struct.WC_PKCS12 = type { ptr, ptr, ptr, i32, i8 }
%struct.MacData = type { ptr, ptr, i32, i32, i32, i32 }
%struct.AuthenticatedSafe = type { ptr, ptr, i32, i32, i32 }
%struct.ContentInfo = type { ptr, ptr, i32, i32, i32 }

; Function Attrs: nounwind uwtable
define internal void @freeSafe(ptr noundef %0, ptr noundef %1) #0 {
  %3 = alloca ptr, align 8
  %4 = alloca ptr, align 8
  %5 = alloca i32, align 4
  %6 = alloca i32, align 4
  %7 = alloca ptr, align 8
  %8 = alloca ptr, align 8
  %9 = alloca ptr, align 8
  %10 = alloca ptr, align 8
  store ptr %0, ptr %3, align 8, !tbaa !20
  store ptr %1, ptr %4, align 8, !tbaa !3
  call void @llvm.lifetime.start.p0(i64 4, ptr %5) #7
  %11 = load ptr, ptr %3, align 8, !tbaa !20
  %12 = icmp eq ptr %11, null
  br i1 %12, label %13, label %14

13:                                               ; preds = %2
  store i32 1, ptr %6, align 4
  br label %63

14:                                               ; preds = %2
  %15 = load ptr, ptr %3, align 8, !tbaa !20
  %16 = getelementptr inbounds nuw %struct.AuthenticatedSafe, ptr %15, i32 0, i32 3
  %17 = load i32, ptr %16, align 4, !tbaa !21
  store i32 %17, ptr %5, align 4, !tbaa !24
  br label %18

18:                                               ; preds = %39, %14
  %19 = load i32, ptr %5, align 4, !tbaa !24
  %20 = icmp sgt i32 %19, 0
  br i1 %20, label %21, label %42

21:                                               ; preds = %18
  call void @llvm.lifetime.start.p0(i64 8, ptr %7) #7
  %22 = load ptr, ptr %3, align 8, !tbaa !20
  %23 = getelementptr inbounds nuw %struct.AuthenticatedSafe, ptr %22, i32 0, i32 0
  %24 = load ptr, ptr %23, align 8, !tbaa !25
  store ptr %24, ptr %7, align 8, !tbaa !26
  %25 = load ptr, ptr %7, align 8, !tbaa !26
  %26 = getelementptr inbounds nuw %struct.ContentInfo, ptr %25, i32 0, i32 1
  %27 = load ptr, ptr %26, align 8, !tbaa !27
  %28 = load ptr, ptr %3, align 8, !tbaa !20
  %29 = getelementptr inbounds nuw %struct.AuthenticatedSafe, ptr %28, i32 0, i32 0
  store ptr %27, ptr %29, align 8, !tbaa !25
  br label %30

30:                                               ; preds = %21
  call void @llvm.lifetime.start.p0(i64 8, ptr %8) #7
  %31 = load ptr, ptr %7, align 8, !tbaa !26
  store ptr %31, ptr %8, align 8, !tbaa !3
  %32 = load ptr, ptr %8, align 8, !tbaa !3
  %33 = icmp ne ptr %32, null
  br i1 %33, label %34, label %36

34:                                               ; preds = %30
  %35 = load ptr, ptr %8, align 8, !tbaa !3
  call void @wolfSSL_Free(ptr noundef %35)
  br label %36

36:                                               ; preds = %34, %30
  call void @llvm.lifetime.end.p0(i64 8, ptr %8) #7
  br label %37

37:                                               ; preds = %36
  br label %38

38:                                               ; preds = %37
  call void @llvm.lifetime.end.p0(i64 8, ptr %7) #7
  br label %39

39:                                               ; preds = %38
  %40 = load i32, ptr %5, align 4, !tbaa !24
  %41 = add nsw i32 %40, -1
  store i32 %41, ptr %5, align 4, !tbaa !24
  br label %18, !llvm.loop !29

42:                                               ; preds = %18
  br label %43

43:                                               ; preds = %42
  call void @llvm.lifetime.start.p0(i64 8, ptr %9) #7
  %44 = load ptr, ptr %3, align 8, !tbaa !20
  %45 = getelementptr inbounds nuw %struct.AuthenticatedSafe, ptr %44, i32 0, i32 1
  %46 = load ptr, ptr %45, align 8, !tbaa !31
  store ptr %46, ptr %9, align 8, !tbaa !3
  %47 = load ptr, ptr %9, align 8, !tbaa !3
  %48 = icmp ne ptr %47, null
  br i1 %48, label %49, label %51

49:                                               ; preds = %43
  %50 = load ptr, ptr %9, align 8, !tbaa !3
  call void @wolfSSL_Free(ptr noundef %50)
  br label %51

51:                                               ; preds = %49, %43
  call void @llvm.lifetime.end.p0(i64 8, ptr %9) #7
  br label %52

52:                                               ; preds = %51
  br label %53

53:                                               ; preds = %52
  br label %54

54:                                               ; preds = %53
  call void @llvm.lifetime.start.p0(i64 8, ptr %10) #7
  %55 = load ptr, ptr %3, align 8, !tbaa !20
  store ptr %55, ptr %10, align 8, !tbaa !3
  %56 = load ptr, ptr %10, align 8, !tbaa !3
  %57 = icmp ne ptr %56, null
  br i1 %57, label %58, label %60

58:                                               ; preds = %54
  %59 = load ptr, ptr %10, align 8, !tbaa !3
  call void @wolfSSL_Free(ptr noundef %59)
  br label %60

60:                                               ; preds = %58, %54
  call void @llvm.lifetime.end.p0(i64 8, ptr %10) #7
  br label %61

61:                                               ; preds = %60
  br label %62

62:                                               ; preds = %61
  store i32 0, ptr %6, align 4
  br label %63

63:                                               ; preds = %62, %13
  call void @llvm.lifetime.end.p0(i64 4, ptr %5) #7
  %64 = load i32, ptr %6, align 4
  switch i32 %64, label %66 [
    i32 0, label %65
    i32 1, label %65
  ]

65:                                               ; preds = %63, %63
  ret void

66:                                               ; preds = %63
  unreachable
}

; Function Attrs: nounwind uwtable
define void @wc_PKCS12_free(ptr noundef %0) #0 {
  %2 = alloca ptr, align 8
  %3 = alloca ptr, align 8
  %4 = alloca i32, align 4
  %5 = alloca ptr, align 8
  %6 = alloca ptr, align 8
  %7 = alloca ptr, align 8
  %8 = alloca ptr, align 8
  store ptr %0, ptr %2, align 8, !tbaa !7
  call void @llvm.lifetime.start.p0(i64 8, ptr %3) #7
  %9 = load ptr, ptr %2, align 8, !tbaa !7
  %10 = icmp eq ptr %9, null
  br i1 %10, label %11, label %15

11:                                               ; preds = %1
  br label %12

12:                                               ; preds = %11
  br label %13

13:                                               ; preds = %12
  br label %14

14:                                               ; preds = %13
  store i32 1, ptr %4, align 4
  br label %81

15:                                               ; preds = %1
  %16 = load ptr, ptr %2, align 8, !tbaa !7
  %17 = getelementptr inbounds nuw %struct.WC_PKCS12, ptr %16, i32 0, i32 0
  %18 = load ptr, ptr %17, align 8, !tbaa !9
  store ptr %18, ptr %3, align 8, !tbaa !3
  %19 = load ptr, ptr %2, align 8, !tbaa !7
  %20 = getelementptr inbounds nuw %struct.WC_PKCS12, ptr %19, i32 0, i32 1
  %21 = load ptr, ptr %20, align 8, !tbaa !14
  %22 = icmp ne ptr %21, null
  br i1 %22, label %23, label %28

23:                                               ; preds = %15
  %24 = load ptr, ptr %2, align 8, !tbaa !7
  %25 = getelementptr inbounds nuw %struct.WC_PKCS12, ptr %24, i32 0, i32 1
  %26 = load ptr, ptr %25, align 8, !tbaa !14
  %27 = load ptr, ptr %3, align 8, !tbaa !3
  call void @freeSafe(ptr noundef %26, ptr noundef %27)
  br label %28

28:                                               ; preds = %23, %15
  %29 = load ptr, ptr %2, align 8, !tbaa !7
  %30 = getelementptr inbounds nuw %struct.WC_PKCS12, ptr %29, i32 0, i32 2
  %31 = load ptr, ptr %30, align 8, !tbaa !15
  %32 = icmp ne ptr %31, null
  br i1 %32, label %33, label %71

33:                                               ; preds = %28
  br label %34

34:                                               ; preds = %33
  call void @llvm.lifetime.start.p0(i64 8, ptr %5) #7
  %35 = load ptr, ptr %2, align 8, !tbaa !7
  %36 = getelementptr inbounds nuw %struct.WC_PKCS12, ptr %35, i32 0, i32 2
  %37 = load ptr, ptr %36, align 8, !tbaa !15
  %38 = getelementptr inbounds nuw %struct.MacData, ptr %37, i32 0, i32 0
  %39 = load ptr, ptr %38, align 8, !tbaa !16
  store ptr %39, ptr %5, align 8, !tbaa !3
  %40 = load ptr, ptr %5, align 8, !tbaa !3
  %41 = icmp ne ptr %40, null
  br i1 %41, label %42, label %44

42:                                               ; preds = %34
  %43 = load ptr, ptr %5, align 8, !tbaa !3
  call void @wolfSSL_Free(ptr noundef %43)
  br label %44

44:                                               ; preds = %42, %34
  call void @llvm.lifetime.end.p0(i64 8, ptr %5) #7
  br label %45

45:                                               ; preds = %44
  br label %46

46:                                               ; preds = %45
  br label %47

47:                                               ; preds = %46
  call void @llvm.lifetime.start.p0(i64 8, ptr %6) #7
  %48 = load ptr, ptr %2, align 8, !tbaa !7
  %49 = getelementptr inbounds nuw %struct.WC_PKCS12, ptr %48, i32 0, i32 2
  %50 = load ptr, ptr %49, align 8, !tbaa !15
  %51 = getelementptr inbounds nuw %struct.MacData, ptr %50, i32 0, i32 1
  %52 = load ptr, ptr %51, align 8, !tbaa !19
  store ptr %52, ptr %6, align 8, !tbaa !3
  %53 = load ptr, ptr %6, align 8, !tbaa !3
  %54 = icmp ne ptr %53, null
  br i1 %54, label %55, label %57

55:                                               ; preds = %47
  %56 = load ptr, ptr %6, align 8, !tbaa !3
  call void @wolfSSL_Free(ptr noundef %56)
  br label %57

57:                                               ; preds = %55, %47
  call void @llvm.lifetime.end.p0(i64 8, ptr %6) #7
  br label %58

58:                                               ; preds = %57
  br label %59

59:                                               ; preds = %58
  br label %60

60:                                               ; preds = %59
  call void @llvm.lifetime.start.p0(i64 8, ptr %7) #7
  %61 = load ptr, ptr %2, align 8, !tbaa !7
  %62 = getelementptr inbounds nuw %struct.WC_PKCS12, ptr %61, i32 0, i32 2
  %63 = load ptr, ptr %62, align 8, !tbaa !15
  store ptr %63, ptr %7, align 8, !tbaa !3
  %64 = load ptr, ptr %7, align 8, !tbaa !3
  %65 = icmp ne ptr %64, null
  br i1 %65, label %66, label %68

66:                                               ; preds = %60
  %67 = load ptr, ptr %7, align 8, !tbaa !3
  call void @wolfSSL_Free(ptr noundef %67)
  br label %68

68:                                               ; preds = %66, %60
  call void @llvm.lifetime.end.p0(i64 8, ptr %7) #7
  br label %69

69:                                               ; preds = %68
  br label %70

70:                                               ; preds = %69
  br label %71

71:                                               ; preds = %70, %28
  br label %72

72:                                               ; preds = %71
  call void @llvm.lifetime.start.p0(i64 8, ptr %8) #7
  %73 = load ptr, ptr %2, align 8, !tbaa !7
  store ptr %73, ptr %8, align 8, !tbaa !3
  %74 = load ptr, ptr %8, align 8, !tbaa !3
  %75 = icmp ne ptr %74, null
  br i1 %75, label %76, label %78

76:                                               ; preds = %72
  %77 = load ptr, ptr %8, align 8, !tbaa !3
  call void @wolfSSL_Free(ptr noundef %77)
  br label %78

78:                                               ; preds = %76, %72
  call void @llvm.lifetime.end.p0(i64 8, ptr %8) #7
  br label %79

79:                                               ; preds = %78
  br label %80

80:                                               ; preds = %79
  store i32 0, ptr %4, align 4
  br label %81

81:                                               ; preds = %80, %14
  call void @llvm.lifetime.end.p0(i64 8, ptr %3) #7
  %82 = load i32, ptr %4, align 4
  switch i32 %82, label %84 [
    i32 0, label %83
    i32 1, label %83
  ]

83:                                               ; preds = %81, %81
  ret void

84:                                               ; preds = %81
  unreachable
}