; Function Attrs: nounwind uwtable
define void @wc_PKCS12_free(ptr noundef %0) local_unnamed_addr #0 {
  %2 = icmp eq ptr %0, null
  br i1 %2, label %31, label %3

3:                                                ; preds = %1
  %4 = getelementptr inbounds nuw i8, ptr %0, i64 8
  %5 = load ptr, ptr %4, align 8, !tbaa !11
  %.not = icmp eq ptr %5, null
  br i1 %.not, label %18, label %6

6:                                                ; preds = %3
  %7 = getelementptr inbounds nuw i8, ptr %5, i64 20
  %8 = load i32, ptr %7, align 4, !tbaa !12
  %9 = icmp sgt i32 %8, 0
  br i1 %9, label %.lr.ph.i, label %._crit_edge.i

.lr.ph.i:                                         ; preds = %6, %.lr.ph.i
  %.01.i = phi i32 [ %13, %.lr.ph.i ], [ %8, %6 ]
  %10 = load ptr, ptr %5, align 8, !tbaa !16
  %11 = getelementptr inbounds nuw i8, ptr %10, i64 8
  %12 = load ptr, ptr %11, align 8, !tbaa !17
  store ptr %12, ptr %5, align 8, !tbaa !16
  tail call void @wolfSSL_Free(ptr noundef nonnull %10) #9
  %13 = add nsw i32 %.01.i, -1
  %14 = icmp samesign ugt i32 %.01.i, 1
  br i1 %14, label %.lr.ph.i, label %._crit_edge.i, !llvm.loop !19

._crit_edge.i:                                    ; preds = %.lr.ph.i, %6
  %15 = getelementptr inbounds nuw i8, ptr %5, i64 8
  %16 = load ptr, ptr %15, align 8, !tbaa !21
  %.not.i = icmp eq ptr %16, null
  br i1 %.not.i, label %freeSafe.exit, label %17

17:                                               ; preds = %._crit_edge.i
  tail call void @wolfSSL_Free(ptr noundef nonnull %16) #9
  br label %freeSafe.exit

freeSafe.exit:                                    ; preds = %._crit_edge.i, %17
  tail call void @wolfSSL_Free(ptr noundef nonnull %5) #9
  br label %18

18:                                               ; preds = %freeSafe.exit, %3
  %19 = getelementptr inbounds nuw i8, ptr %0, i64 16
  %20 = load ptr, ptr %19, align 8, !tbaa !22
  %.not23 = icmp eq ptr %20, null
  br i1 %.not23, label %30, label %21

21:                                               ; preds = %18
  %22 = load ptr, ptr %20, align 8, !tbaa !23
  %.not24 = icmp eq ptr %22, null
  br i1 %.not24, label %24, label %23

23:                                               ; preds = %21
  tail call void @wolfSSL_Free(ptr noundef nonnull %22) #9
  %.pre = load ptr, ptr %19, align 8, !tbaa !22
  br label %24

24:                                               ; preds = %23, %21
  %25 = phi ptr [ %.pre, %23 ], [ %20, %21 ]
  %26 = getelementptr inbounds nuw i8, ptr %25, i64 8
  %27 = load ptr, ptr %26, align 8, !tbaa !25
  %.not25 = icmp eq ptr %27, null
  br i1 %.not25, label %.thread, label %28

28:                                               ; preds = %24
  tail call void @wolfSSL_Free(ptr noundef nonnull %27) #9
  %.pr = load ptr, ptr %19, align 8, !tbaa !22
  %.not26 = icmp eq ptr %.pr, null
  br i1 %.not26, label %30, label %.thread

.thread:                                          ; preds = %24, %28
  %29 = phi ptr [ %.pr, %28 ], [ %25, %24 ]
  tail call void @wolfSSL_Free(ptr noundef nonnull %29) #9
  br label %30

30:                                               ; preds = %18, %.thread, %28
  tail call void @wolfSSL_Free(ptr noundef nonnull %0) #9
  br label %31

31:                                               ; preds = %1, %30
  ret void
}